target datalayout = "e-m:e-p270:32:32-p271:32:32-p272:64:64-i64:64-i128:128-f80:128-n8:16:32:64-S128"
target triple = "x86_64-pc-linux-gnu"

; Function Attrs: nounwind uwtable
define void @ff_ivi_dc_haar_2d(ptr noundef %0, ptr noundef %1, i64 noundef %2, i32 noundef %3) #0 {
  %5 = alloca ptr, align 8
  %6 = alloca ptr, align 8
  %7 = alloca i64, align 8
  %8 = alloca i32, align 4
  %9 = alloca i32, align 4
  %10 = alloca i32, align 4
  %11 = alloca i16, align 2
  store ptr %0, ptr %5, align 8, !tbaa !40
  store ptr %1, ptr %6, align 8, !tbaa !30
  store i64 %2, ptr %7, align 8, !tbaa !11
  store i32 %3, ptr %8, align 4, !tbaa !13
  call void @llvm.lifetime.start.p0(i64 4, ptr %9) #4
  call void @llvm.lifetime.start.p0(i64 4, ptr %10) #4
  call void @llvm.lifetime.start.p0(i64 2, ptr %11) #4
  %12 = load ptr, ptr %5, align 8, !tbaa !40
  %13 = load i32, ptr %12, align 4, !tbaa !13
  %14 = add nsw i32 %13, 0
  %15 = ashr i32 %14, 3
  %16 = trunc i32 %15 to i16
  store i16 %16, ptr %11, align 2, !tbaa !32
  store i32 0, ptr %10, align 4, !tbaa !13
  br label %17

17:                                               ; preds = %36, %4
  %18 = load i32, ptr %10, align 4, !tbaa !13
  %19 = load i32, ptr %8, align 4, !tbaa !13
  %20 = icmp slt i32 %18, %19
  br i1 %20, label %21, label %42

21:                                               ; preds = %17
  store i32 0, ptr %9, align 4, !tbaa !13
  br label %22

22:                                               ; preds = %32, %21
  %23 = load i32, ptr %9, align 4, !tbaa !13
  %24 = load i32, ptr %8, align 4, !tbaa !13
  %25 = icmp slt i32 %23, %24
  br i1 %25, label %26, label %35

26:                                               ; preds = %22
  %27 = load i16, ptr %11, align 2, !tbaa !32
  %28 = load ptr, ptr %6, align 8, !tbaa !30
  %29 = load i32, ptr %9, align 4, !tbaa !13
  %30 = sext i32 %29 to i64
  %31 = getelementptr inbounds i16, ptr %28, i64 %30
  store i16 %27, ptr %31, align 2, !tbaa !32
  br label %32

32:                                               ; preds = %26
  %33 = load i32, ptr %9, align 4, !tbaa !13
  %34 = add nsw i32 %33, 1
  store i32 %34, ptr %9, align 4, !tbaa !13
  br label %22, !llvm.loop !50

35:                                               ; preds = %22
  br label %36

36:                                               ; preds = %35
  %37 = load i64, ptr %7, align 8, !tbaa !11
  %38 = load ptr, ptr %6, align 8, !tbaa !30
  %39 = getelementptr inbounds i16, ptr %38, i64 %37
  store ptr %39, ptr %6, align 8, !tbaa !30
  %40 = load i32, ptr %10, align 4, !tbaa !13
  %41 = add nsw i32 %40, 1
  store i32 %41, ptr %10, align 4, !tbaa !13
  br label %17, !llvm.loop !51

42:                                               ; preds = %17
  call void @llvm.lifetime.end.p0(i64 2, ptr %11) #4
  call void @llvm.lifetime.end.p0(i64 4, ptr %10) #4
  call void @llvm.lifetime.end.p0(i64 4, ptr %9) #4
  ret void
}