; Function Attrs: nofree norecurse nosync nounwind memory(argmem: readwrite) uwtable
define void @ff_ivi_dc_haar_2d(ptr noundef readonly captures(none) %0, ptr noundef writeonly captures(none) %1, i64 noundef %2, i32 noundef %3) local_unnamed_addr #2 {
  %5 = load i32, ptr %0, align 4, !tbaa !34
  %6 = lshr i32 %5, 3
  %7 = trunc i32 %6 to i16
  %8 = icmp sgt i32 %3, 0
  br i1 %8, label %.preheader.us.preheader, label %._crit_edge17

.preheader.us.preheader:                          ; preds = %4
  %wide.trip.count = zext nneg i32 %3 to i64
  br label %.preheader.us

.preheader.us:                                    ; preds = %.preheader.us.preheader, %._crit_edge.us
  %.016.us = phi ptr [ %11, %._crit_edge.us ], [ %1, %.preheader.us.preheader ]
  %.01115.us = phi i32 [ %12, %._crit_edge.us ], [ 0, %.preheader.us.preheader ]
  br label %9

9:                                                ; preds = %.preheader.us, %9
  %indvars.iv = phi i64 [ 0, %.preheader.us ], [ %indvars.iv.next, %9 ]
  %10 = getelementptr inbounds nuw i16, ptr %.016.us, i64 %indvars.iv
  store i16 %7, ptr %10, align 2, !tbaa !27
  %indvars.iv.next = add nuw nsw i64 %indvars.iv, 1
  %exitcond.not = icmp eq i64 %indvars.iv.next, %wide.trip.count
  br i1 %exitcond.not, label %._crit_edge.us, label %9, !llvm.loop !43

._crit_edge.us:                                   ; preds = %9
  %11 = getelementptr inbounds i16, ptr %.016.us, i64 %2
  %12 = add nuw nsw i32 %.01115.us, 1
  %exitcond19.not = icmp eq i32 %12, %3
  br i1 %exitcond19.not, label %._crit_edge17, label %.preheader.us, !llvm.loop !44

._crit_edge17:                                    ; preds = %._crit_edge.us, %4
  ret void
}